target datalayout = "e-m:e-p270:32:32-p271:32:32-p272:64:64-i64:64-i128:128-f80:128-n8:16:32:64-S128"
target triple = "x86_64-unknown-linux-gnu"

%struct.SCSISense = type { i8, i8, i8 }
%struct.SCSIDiskState = type { %struct.SCSIDevice, i32, i8, i8, i8, i16, i64, i64, i32, ptr, ptr, ptr, ptr, ptr, ptr, i8, i8, i16 }
%struct.SCSIDevice = type { %struct.DeviceState, ptr, ptr, i32, %struct.BlockConf, %struct.SCSISense, i8, [252 x i8], i32, %union.anon, i32, i32, i32, i32, i64, i64, i64, i32, i32, i32, i8, i8 }
%struct.DeviceState = type { %struct.Object, ptr, ptr, i8, i8, i64, ptr, i32, i8, ptr, %struct.NamedGPIOListHead, %struct.NamedClockListHead, %struct.BusStateHead, i32, i32, i32, %struct.ResettableState, ptr, %struct.MemReentrancyGuard }
%struct.Object = type { ptr, ptr, ptr, i32, ptr }
%struct.NamedGPIOListHead = type { ptr }
%struct.NamedClockListHead = type { ptr }
%struct.BusStateHead = type { ptr }
%struct.ResettableState = type { i32, i8, i8 }
%struct.MemReentrancyGuard = type { i8 }
%struct.BlockConf = type { ptr, i32, i32, i32, i32, i32, i32, i32, i32, i32, i32, i32, i32, i32, i32, i8, i32, i32, i32, i32 }
%union.anon = type { %struct.QTailQLink }
%struct.QTailQLink = type { ptr, ptr }

@.str.9 = private unnamed_addr constant [14 x i8] c"QEMU HARDDISK\00", align 1

; Function Attrs: nounwind sspstrong uwtable
define internal void @scsi_hd_realize(ptr noundef %dev, ptr noundef %errp) #0 {
entry:
  %dev.addr = alloca ptr, align 8
  %errp.addr = alloca ptr, align 8
  %s = alloca ptr, align 8
  %tmp = alloca ptr, align 8
  %__mptr = alloca ptr, align 8
  %tmp1 = alloca ptr, align 8
  %ctx = alloca ptr, align 8
  store ptr %dev, ptr %dev.addr, align 8
  store ptr %errp, ptr %errp.addr, align 8
  %0 = load ptr, ptr %dev.addr, align 8
  store ptr %0, ptr %__mptr, align 8
  %1 = load ptr, ptr %__mptr, align 8
  %add.ptr = getelementptr i8, ptr %1, i64 0
  store ptr %add.ptr, ptr %tmp1, align 8
  %2 = load ptr, ptr %tmp1, align 8
  store ptr %2, ptr %tmp, align 8
  %3 = load ptr, ptr %tmp, align 8
  store ptr %3, ptr %s, align 8
  store ptr null, ptr %ctx, align 8
  %4 = load ptr, ptr %s, align 8
  %qdev = getelementptr inbounds %struct.SCSIDiskState, ptr %4, i32 0, i32 0
  %conf = getelementptr inbounds %struct.SCSIDevice, ptr %qdev, i32 0, i32 4
  %blk = getelementptr inbounds %struct.BlockConf, ptr %conf, i32 0, i32 0
  %5 = load ptr, ptr %blk, align 8
  %tobool = icmp ne ptr %5, null
  br i1 %tobool, label %if.then, label %if.end9

if.then:                                          ; preds = %entry
  %6 = load ptr, ptr %s, align 8
  %qdev2 = getelementptr inbounds %struct.SCSIDiskState, ptr %6, i32 0, i32 0
  %conf3 = getelementptr inbounds %struct.SCSIDevice, ptr %qdev2, i32 0, i32 4
  %blk4 = getelementptr inbounds %struct.BlockConf, ptr %conf3, i32 0, i32 0
  %7 = load ptr, ptr %blk4, align 8
  %call = call ptr @blk_get_aio_context(ptr noundef %7)
  store ptr %call, ptr %ctx, align 8
  %8 = load ptr, ptr %ctx, align 8
  call void @aio_context_acquire(ptr noundef %8)
  %9 = load ptr, ptr %s, align 8
  %qdev5 = getelementptr inbounds %struct.SCSIDiskState, ptr %9, i32 0, i32 0
  %conf6 = getelementptr inbounds %struct.SCSIDevice, ptr %qdev5, i32 0, i32 4
  %10 = load ptr, ptr %errp.addr, align 8
  %call7 = call zeroext i1 @blkconf_blocksizes(ptr noundef %conf6, ptr noundef %10)
  br i1 %call7, label %if.end, label %if.then8

if.then8:                                         ; preds = %if.then
  br label %out

if.end:                                           ; preds = %if.then
  br label %if.end9

if.end9:                                          ; preds = %if.end, %entry
  %11 = load ptr, ptr %s, align 8
  %qdev10 = getelementptr inbounds %struct.SCSIDiskState, ptr %11, i32 0, i32 0
  %conf11 = getelementptr inbounds %struct.SCSIDevice, ptr %qdev10, i32 0, i32 4
  %logical_block_size = getelementptr inbounds %struct.BlockConf, ptr %conf11, i32 0, i32 3
  %12 = load i32, ptr %logical_block_size, align 8
  %13 = load ptr, ptr %s, align 8
  %qdev12 = getelementptr inbounds %struct.SCSIDiskState, ptr %13, i32 0, i32 0
  %blocksize = getelementptr inbounds %struct.SCSIDevice, ptr %qdev12, i32 0, i32 12
  store i32 %12, ptr %blocksize, align 8
  %14 = load ptr, ptr %s, align 8
  %qdev13 = getelementptr inbounds %struct.SCSIDiskState, ptr %14, i32 0, i32 0
  %type = getelementptr inbounds %struct.SCSIDevice, ptr %qdev13, i32 0, i32 13
  store i32 0, ptr %type, align 4
  %15 = load ptr, ptr %s, align 8
  %product = getelementptr inbounds %struct.SCSIDiskState, ptr %15, i32 0, i32 13
  %16 = load ptr, ptr %product, align 8
  %tobool14 = icmp ne ptr %16, null
  br i1 %tobool14, label %if.end18, label %if.then15

if.then15:                                        ; preds = %if.end9
  %call16 = call noalias ptr @g_strdup(ptr noundef @.str.9)
  %17 = load ptr, ptr %s, align 8
  %product17 = getelementptr inbounds %struct.SCSIDiskState, ptr %17, i32 0, i32 13
  store ptr %call16, ptr %product17, align 8
  br label %if.end18

if.end18:                                         ; preds = %if.then15, %if.end9
  %18 = load ptr, ptr %s, align 8
  %qdev19 = getelementptr inbounds %struct.SCSIDiskState, ptr %18, i32 0, i32 0
  %19 = load ptr, ptr %errp.addr, align 8
  call void @scsi_realize(ptr noundef %qdev19, ptr noundef %19)
  br label %out

out:                                              ; preds = %if.end18, %if.then8
  %20 = load ptr, ptr %ctx, align 8
  %tobool20 = icmp ne ptr %20, null
  br i1 %tobool20, label %if.then21, label %if.end22

if.then21:                                        ; preds = %out
  %21 = load ptr, ptr %ctx, align 8
  call void @aio_context_release(ptr noundef %21)
  br label %if.end22

if.end22:                                         ; preds = %if.then21, %out
  ret void
}