; Function Attrs: nounwind sspstrong uwtable
define internal void @scsi_hd_realize(ptr noundef %dev, ptr noundef %errp) #0 {
entry:
  %conf = getelementptr inbounds nuw i8, ptr %dev, i64 184
  %0 = load ptr, ptr %conf, align 8
  %tobool.not = icmp eq ptr %0, null
  br i1 %tobool.not, label %if.end9, label %if.then

if.then:                                          ; preds = %entry
  %call = tail call ptr @blk_get_aio_context(ptr noundef nonnull %0) #18
  tail call void @aio_context_acquire(ptr noundef %call) #18
  %call7 = tail call zeroext i1 @blkconf_blocksizes(ptr noundef nonnull %conf, ptr noundef %errp) #18
  br i1 %call7, label %if.end9, label %out

if.end9:                                          ; preds = %if.then, %entry
  %ctx.0 = phi ptr [ %call, %if.then ], [ null, %entry ]
  %logical_block_size = getelementptr inbounds nuw i8, ptr %dev, i64 200
  %1 = load i32, ptr %logical_block_size, align 8
  %blocksize = getelementptr inbounds nuw i8, ptr %dev, i64 560
  store i32 %1, ptr %blocksize, align 8
  %type = getelementptr inbounds nuw i8, ptr %dev, i64 564
  store i32 0, ptr %type, align 4
  %product = getelementptr inbounds nuw i8, ptr %dev, i64 680
  %2 = load ptr, ptr %product, align 8
  %tobool14.not = icmp eq ptr %2, null
  br i1 %tobool14.not, label %if.then15, label %if.end18

if.then15:                                        ; preds = %if.end9
  %call16 = tail call noalias ptr @g_strdup(ptr noundef nonnull @.str.9) #18
  store ptr %call16, ptr %product, align 8
  br label %if.end18

if.end18:                                         ; preds = %if.then15, %if.end9
  tail call fastcc void @scsi_realize(ptr noundef nonnull %dev, ptr noundef %errp)
  br label %out

out:                                              ; preds = %if.then, %if.end18
  %ctx.1 = phi ptr [ %ctx.0, %if.end18 ], [ %call, %if.then ]
  %tobool20.not = icmp eq ptr %ctx.1, null
  br i1 %tobool20.not, label %if.end22, label %if.then21

if.then21:                                        ; preds = %out
  tail call void @aio_context_release(ptr noundef nonnull %ctx.1) #18
  br label %if.end22

if.end22:                                         ; preds = %if.then21, %out
  ret void
}